target datalayout = "e-m:e-p270:32:32-p271:32:32-p272:64:64-i64:64-i128:128-f80:128-n8:16:32:64-S128"
target triple = "x86_64-pc-linux-gnu"

%struct.AVCodecContext = type { ptr, i32, i32, ptr, i32, i32, ptr, ptr, ptr, i64, i32, i32, ptr, i32, %struct.AVRational, %struct.AVRational, %struct.AVRational, i32, i32, i32, i32, i32, %struct.AVRational, i32, i32, i32, i32, i32, i32, i32, i32, i32, i32, i32, ptr, ptr, i32, float, float, float, float, float, float, float, float, float, i32, i32, i32, i32, i32, i32, i32, i32, i32, i32, i32, i32, ptr, ptr, ptr, i32, i32, i32, i32, i32, i32, i32, i32, i32, i32, %struct.AVChannelLayout, i32, i32, i32, i32, i32, i32, i32, i32, ptr, i32, i32, i32, float, float, i32, i32, i32, i32, i32, ptr, i64, i64, float, float, i32, i32, ptr, ptr, i32, i32, i32, i32, i32, ptr, ptr, ptr, ptr, i32, i32, [8 x i64], i32, i32, i32, i32, i32, i32, i32, ptr, ptr, i32, i32, i32, i32, i32, i32, i32, i32, i32, i32, ptr, ptr, i32, i32, ptr, ptr, ptr, ptr, i32, i32, i64, i32, i32, i64, ptr, i64, ptr, i32, ptr, i32 }
%struct.AVRational = type { i32, i32 }
%struct.AVChannelLayout = type { i32, i32, %union.anon.0, ptr }
%union.anon.0 = type { i64 }
%struct.RV60Context = type { ptr, %struct.VideoDSPContext, [3 x ptr], i32, i32, i32, i32, i32, i32, i32, i32, i32, i32, i32, i32, ptr, i32, ptr, i32, ptr, i32, ptr, ptr, [2 x i64], i64, [2 x i32], ptr, i32 }
%struct.VideoDSPContext = type { ptr, ptr }

@rv60_decode_init.init_static_once = internal global i32 0, align 4

; Function Attrs: cold nounwind optsize uwtable
define internal i32 @rv60_decode_init(ptr noundef %0) #0 {
  %2 = alloca i32, align 4
  %3 = alloca ptr, align 8
  %4 = alloca ptr, align 8
  %5 = alloca i32, align 4
  %6 = alloca i32, align 4
  store ptr %0, ptr %3, align 8, !tbaa !4
  call void @llvm.lifetime.start.p0(i64 8, ptr %4) #11
  %7 = load ptr, ptr %3, align 8, !tbaa !4
  %8 = getelementptr inbounds nuw %struct.AVCodecContext, ptr %7, i32 0, i32 6
  %9 = load ptr, ptr %8, align 8, !tbaa !9
  store ptr %9, ptr %4, align 8, !tbaa !29
  %10 = load ptr, ptr %3, align 8, !tbaa !4
  %11 = load ptr, ptr %4, align 8, !tbaa !29
  %12 = getelementptr inbounds nuw %struct.RV60Context, ptr %11, i32 0, i32 0
  store ptr %10, ptr %12, align 8, !tbaa !31
  %13 = load ptr, ptr %4, align 8, !tbaa !29
  %14 = getelementptr inbounds nuw %struct.RV60Context, ptr %13, i32 0, i32 1
  call void @ff_videodsp_init(ptr noundef %14, i32 noundef 8)
  %15 = load ptr, ptr %3, align 8, !tbaa !4
  %16 = getelementptr inbounds nuw %struct.AVCodecContext, ptr %15, i32 0, i32 23
  store i32 0, ptr %16, align 8, !tbaa !35
  call void @llvm.lifetime.start.p0(i64 4, ptr %5) #11
  store i32 0, ptr %5, align 4, !tbaa !36
  br label %17

17:                                               ; preds = %37, %1
  %18 = load i32, ptr %5, align 4, !tbaa !36
  %19 = icmp slt i32 %18, 3
  br i1 %19, label %21, label %20

20:                                               ; preds = %17
  store i32 2, ptr %6, align 4
  br label %40

21:                                               ; preds = %17
  %22 = call ptr @av_frame_alloc()
  %23 = load ptr, ptr %4, align 8, !tbaa !29
  %24 = getelementptr inbounds nuw %struct.RV60Context, ptr %23, i32 0, i32 2
  %25 = load i32, ptr %5, align 4, !tbaa !36
  %26 = sext i32 %25 to i64
  %27 = getelementptr inbounds [3 x ptr], ptr %24, i64 0, i64 %26
  store ptr %22, ptr %27, align 8, !tbaa !37
  %28 = load ptr, ptr %4, align 8, !tbaa !29
  %29 = getelementptr inbounds nuw %struct.RV60Context, ptr %28, i32 0, i32 2
  %30 = load i32, ptr %5, align 4, !tbaa !36
  %31 = sext i32 %30 to i64
  %32 = getelementptr inbounds [3 x ptr], ptr %29, i64 0, i64 %31
  %33 = load ptr, ptr %32, align 8, !tbaa !37
  %34 = icmp ne ptr %33, null
  br i1 %34, label %36, label %35

35:                                               ; preds = %21
  store i32 -12, ptr %2, align 4
  store i32 1, ptr %6, align 4
  br label %40

36:                                               ; preds = %21
  br label %37

37:                                               ; preds = %36
  %38 = load i32, ptr %5, align 4, !tbaa !36
  %39 = add nsw i32 %38, 1
  store i32 %39, ptr %5, align 4, !tbaa !36
  br label %17, !llvm.loop !39

40:                                               ; preds = %35, %20
  call void @llvm.lifetime.end.p0(i64 4, ptr %5) #11
  %41 = load i32, ptr %6, align 4
  switch i32 %41, label %44 [
    i32 2, label %42
  ]

42:                                               ; preds = %40
  %43 = call i32 @pthread_once(ptr noundef @rv60_decode_init.init_static_once, ptr noundef @rv60_init_static_data)
  store i32 0, ptr %2, align 4
  store i32 1, ptr %6, align 4
  br label %44

44:                                               ; preds = %42, %40
  call void @llvm.lifetime.end.p0(i64 8, ptr %4) #11
  %45 = load i32, ptr %2, align 4
  ret i32 %45
}