; Function Attrs: cold nounwind optsize uwtable
define internal range(i32 -12, 1) i32 @rv60_decode_init(ptr noundef %0) #0 {
  %2 = getelementptr inbounds nuw i8, ptr %0, i64 32
  %3 = load ptr, ptr %2, align 8, !tbaa !4
  store ptr %0, ptr %3, align 8, !tbaa !27
  %4 = getelementptr inbounds nuw i8, ptr %3, i64 8
  tail call void @ff_videodsp_init(ptr noundef nonnull %4, i32 noundef 8) #16
  %5 = getelementptr inbounds nuw i8, ptr %0, i64 136
  store i32 0, ptr %5, align 8, !tbaa !32
  %6 = getelementptr inbounds nuw i8, ptr %3, i64 24
  br label %8

7:                                                ; preds = %8
  %indvars.iv.next = add nuw nsw i64 %indvars.iv, 1
  %exitcond = icmp eq i64 %indvars.iv.next, 3
  br i1 %exitcond, label %.critedge, label %8, !llvm.loop !33

8:                                                ; preds = %1, %7
  %indvars.iv = phi i64 [ 0, %1 ], [ %indvars.iv.next, %7 ]
  %9 = tail call ptr @av_frame_alloc() #16
  %10 = getelementptr inbounds nuw [3 x ptr], ptr %6, i64 0, i64 %indvars.iv
  store ptr %9, ptr %10, align 8, !tbaa !35
  %.not = icmp eq ptr %9, null
  br i1 %.not, label %.loopexit, label %7

.critedge:                                        ; preds = %7
  %11 = tail call i32 @pthread_once(ptr noundef nonnull @rv60_decode_init.init_static_once, ptr noundef nonnull @rv60_init_static_data) #16
  br label %.loopexit

.loopexit:                                        ; preds = %8, %.critedge
  %.1 = phi i32 [ 0, %.critedge ], [ -12, %8 ]
  ret i32 %.1
}